target datalayout = "e-m:e-p270:32:32-p271:32:32-p272:64:64-i64:64-i128:128-f80:128-n8:16:32:64-S128"
target triple = "x86_64-pc-linux-gnu"

@hf_kafka_consumer_group = internal global i32 0, align 4
@ett_kafka_topics = internal global i32 0, align 4
@.str.669 = private unnamed_addr constant [7 x i8] c"Topics\00", align 1

; Function Attrs: null_pointer_is_valid sspstrong uwtable
define internal i32 @dissect_kafka_offset_delete_request(ptr noundef %0, ptr noundef %1, ptr noundef %2, i32 noundef %3, i16 noundef signext %4) #0 {
  %6 = alloca ptr, align 8
  %7 = alloca ptr, align 8
  %8 = alloca ptr, align 8
  %9 = alloca i32, align 4
  %10 = alloca i16, align 2
  %11 = alloca ptr, align 8
  %12 = alloca ptr, align 8
  store ptr %0, ptr %6, align 8
  store ptr %1, ptr %7, align 8
  store ptr %2, ptr %8, align 8
  store i32 %3, ptr %9, align 4
  store i16 %4, ptr %10, align 2
  call void @llvm.lifetime.start.p0(i64 8, ptr %11) #12
  call void @llvm.lifetime.start.p0(i64 8, ptr %12) #12
  %13 = load ptr, ptr %8, align 8
  %14 = load i32, ptr @hf_kafka_consumer_group, align 4
  %15 = load ptr, ptr %6, align 8
  %16 = load ptr, ptr %7, align 8
  %17 = load i32, ptr %9, align 4
  %18 = call i32 @dissect_kafka_string(ptr noundef %13, i32 noundef %14, ptr noundef %15, ptr noundef %16, i32 noundef %17, i32 noundef 0, ptr noundef null, ptr noundef null)
  store i32 %18, ptr %9, align 4
  %19 = load ptr, ptr %8, align 8
  %20 = load ptr, ptr %6, align 8
  %21 = load i32, ptr %9, align 4
  %22 = load i32, ptr @ett_kafka_topics, align 4
  %23 = call ptr @proto_tree_add_subtree(ptr noundef %19, ptr noundef %20, i32 noundef %21, i32 noundef -1, i32 noundef %22, ptr noundef %11, ptr noundef @.str.669)
  store ptr %23, ptr %12, align 8
  %24 = load ptr, ptr %12, align 8
  %25 = load ptr, ptr %6, align 8
  %26 = load ptr, ptr %7, align 8
  %27 = load i32, ptr %9, align 4
  %28 = load i16, ptr %10, align 2
  %29 = call i32 @dissect_kafka_array(ptr noundef %24, ptr noundef %25, ptr noundef %26, i32 noundef %27, i32 noundef 0, i16 noundef signext %28, ptr noundef @dissect_kafka_offset_delete_request_topic, ptr noundef null)
  store i32 %29, ptr %9, align 4
  %30 = load ptr, ptr %11, align 8
  %31 = load ptr, ptr %6, align 8
  %32 = load i32, ptr %9, align 4
  call void @proto_item_set_end(ptr noundef %30, ptr noundef %31, i32 noundef %32)
  %33 = load i32, ptr %9, align 4
  call void @llvm.lifetime.end.p0(i64 8, ptr %12) #12
  call void @llvm.lifetime.end.p0(i64 8, ptr %11) #12
  ret i32 %33
}