; Function Attrs: null_pointer_is_valid sspstrong uwtable
define internal fastcc noundef i32 @dissect_kafka_offset_delete_request(ptr noundef %0, ptr noundef %1, ptr noundef %2, i32 noundef %3, i16 noundef signext %4) unnamed_addr #0 {
  %6 = alloca ptr, align 8
  call void @llvm.lifetime.start.p0(i64 8, ptr nonnull %6) #9
  %7 = load i32, ptr @hf_kafka_consumer_group, align 4
  %8 = tail call fastcc i32 @dissect_kafka_string(ptr noundef %2, i32 noundef %7, ptr noundef %0, ptr noundef %1, i32 noundef %3, i32 noundef 0, ptr noundef null, ptr noundef null)
  %9 = load i32, ptr @ett_kafka_topics, align 4
  %10 = call ptr @proto_tree_add_subtree(ptr noundef %2, ptr noundef %0, i32 noundef %8, i32 noundef -1, i32 noundef %9, ptr noundef nonnull %6, ptr noundef nonnull @.str.669)
  %11 = call fastcc i32 @dissect_kafka_array(ptr noundef %10, ptr noundef %0, ptr noundef %1, i32 noundef %8, i32 noundef 0, i16 noundef signext %4, ptr noundef nonnull @dissect_kafka_offset_delete_request_topic, ptr noundef null)
  %12 = load ptr, ptr %6, align 8
  call void @proto_item_set_end(ptr noundef %12, ptr noundef %0, i32 noundef %11)
  call void @llvm.lifetime.end.p0(i64 8, ptr nonnull %6) #9
  ret i32 %11
}